; Function Attrs: mustprogress nofree norecurse nosync nounwind willreturn memory(argmem: write) uwtable
define dso_local void @_ZN9V3Options8optimizeEi(ptr noundef nonnull writeonly align 8 captures(none) dereferenceable(1720) initializes((1681, 1686), (1687, 1689), (1690, 1695), (1697, 1699), (1700, 1704), (1706, 1708), (1709, 1713)) %0, i32 noundef %1) local_unnamed_addr #12 align 2 {
  %3 = icmp sgt i32 %1, 0
  %4 = zext i1 %3 to i8
  %5 = getelementptr inbounds nuw i8, ptr %0, i64 1681
  %6 = getelementptr inbounds nuw i8, ptr %0, i64 1687
  store i8 %4, ptr %6, align 1, !tbaa !484
  %7 = getelementptr inbounds nuw i8, ptr %0, i64 1688
  store i8 %4, ptr %7, align 8, !tbaa !485
  %8 = getelementptr inbounds nuw i8, ptr %0, i64 1690
  %9 = getelementptr inbounds nuw i8, ptr %0, i64 1697
  store i8 %4, ptr %9, align 1, !tbaa !486
  %10 = getelementptr inbounds nuw i8, ptr %0, i64 1698
  store i8 %4, ptr %10, align 2, !tbaa !487
  %11 = getelementptr inbounds nuw i8, ptr %0, i64 1700
  %12 = getelementptr inbounds nuw i8, ptr %0, i64 1706
  store i8 %4, ptr %12, align 2, !tbaa !488
  %13 = getelementptr inbounds nuw i8, ptr %0, i64 1707
  store i8 %4, ptr %13, align 1, !tbaa !489
  %14 = getelementptr inbounds nuw i8, ptr %0, i64 1709
  %15 = icmp sgt i32 %1, 2
  tail call void @llvm.memset.p0.i64(ptr noundef nonnull align 1 dereferenceable(5) %5, i8 %4, i64 5, i1 false)
  tail call void @llvm.memset.p0.i64(ptr noundef nonnull align 2 dereferenceable(5) %8, i8 %4, i64 5, i1 false)
  tail call void @llvm.memset.p0.i64(ptr noundef nonnull align 4 dereferenceable(4) %11, i8 %4, i64 4, i1 false)
  tail call void @llvm.memset.p0.i64(ptr noundef nonnull align 1 dereferenceable(4) %14, i8 %4, i64 4, i1 false)
  br i1 %15, label %16, label %18

16:                                               ; preds = %2
  %17 = getelementptr inbounds nuw i8, ptr %0, i64 920
  store i32 -1, ptr %17, align 8, !tbaa !451
  br label %18

18:                                               ; preds = %16, %2
  ret void
}